target datalayout = "e-m:e-p270:32:32-p271:32:32-p272:64:64-i64:64-i128:128-f80:128-n8:16:32:64-S128"
target triple = "x86_64-pc-linux-gnu"

%struct.expert_field = type { i32, i32 }
%struct._packet_info = type { ptr, ptr, i32, i32, %struct.nstime_t, %struct.nstime_t, %struct.nstime_t, i8, ptr, ptr, ptr, ptr, %struct._address, %struct._address, %struct._address, %struct._address, %struct._address, %struct._address, i32, ptr, i8, [3 x i8], %struct.anon, i32, i32, i32, i32, ptr, i8, ptr, ptr, i16, i16, i32, i32, i16, i32, i32, ptr, ptr, ptr, i8, i8, i16, i16, i16, i32, i16, i16, ptr, ptr, ptr, ptr, ptr, i32, i32 }
%struct.nstime_t = type { i64, i32 }
%struct._address = type { i32, i32, ptr, ptr }
%struct.anon = type { i8, [3 x i8] }

@hf_kafka_topic_name = internal global i32 0, align 4
@.str.558 = private unnamed_addr constant [6 x i8] c"Topic\00", align 1
@ett_kafka_partitions = internal global i32 0, align 4
@ett_kafka_resource = internal global i32 0, align 4
@ei_kafka_bad_array_length = internal global %struct.expert_field zeroinitializer, align 4
@ei_kafka_bad_varint = internal global %struct.expert_field zeroinitializer, align 4
@ei_kafka_zero_field_length = internal global %struct.expert_field zeroinitializer, align 4
@.str.642 = private unnamed_addr constant [11 x i8] c" (Name=%s)\00", align 1
@.str.671 = private unnamed_addr constant [11 x i8] c"Partitions\00", align 1

; Function Attrs: null_pointer_is_valid sspstrong uwtable
define internal i32 @dissect_kafka_array_elements(ptr noundef %0, ptr noundef %1, ptr noundef %2, i32 noundef %3, i16 noundef signext %4, ptr noundef %5, i32 noundef %6) #0 {
  %8 = alloca i32, align 4
  %9 = alloca ptr, align 8
  %10 = alloca ptr, align 8
  %11 = alloca ptr, align 8
  %12 = alloca i32, align 4
  %13 = alloca i16, align 2
  %14 = alloca ptr, align 8
  %15 = alloca i32, align 4
  %16 = alloca i32, align 4
  %17 = alloca i32, align 4
  %18 = alloca i32, align 4
  store ptr %0, ptr %9, align 8
  store ptr %1, ptr %10, align 8
  store ptr %2, ptr %11, align 8
  store i32 %3, ptr %12, align 4
  store i16 %4, ptr %13, align 2
  store ptr %5, ptr %14, align 8
  store i32 %6, ptr %15, align 4
  call void @llvm.lifetime.start.p0(i64 4, ptr %16) #12
  call void @llvm.lifetime.start.p0(i64 4, ptr %17) #12
  %19 = load ptr, ptr %10, align 8
  %20 = load i32, ptr %12, align 4
  %21 = call i32 @tvb_reported_length_remaining(ptr noundef %19, i32 noundef %20)
  %22 = load i32, ptr %15, align 4
  %23 = icmp slt i32 %21, %22
  br i1 %23, label %24, label %30

24:                                               ; preds = %7
  %25 = load ptr, ptr %11, align 8
  %26 = load ptr, ptr %9, align 8
  %27 = call ptr @proto_tree_get_parent(ptr noundef %26)
  %28 = call ptr @expert_add_info(ptr noundef %25, ptr noundef %27, ptr noundef @ei_kafka_bad_array_length)
  %29 = load i32, ptr %12, align 4
  store i32 %29, ptr %8, align 4
  store i32 1, ptr %18, align 4
  br label %58

30:                                               ; preds = %7
  store i32 0, ptr %16, align 4
  br label %31

31:                                               ; preds = %53, %30
  %32 = load i32, ptr %16, align 4
  %33 = load i32, ptr %15, align 4
  %34 = icmp slt i32 %32, %33
  br i1 %34, label %35, label %56

35:                                               ; preds = %31
  %36 = load ptr, ptr %14, align 8
  %37 = load ptr, ptr %10, align 8
  %38 = load ptr, ptr %11, align 8
  %39 = load ptr, ptr %9, align 8
  %40 = load i32, ptr %12, align 4
  %41 = load i16, ptr %13, align 2
  %42 = call i32 %36(ptr noundef %37, ptr noundef %38, ptr noundef %39, i32 noundef %40, i16 noundef signext %41)
  store i32 %42, ptr %17, align 4
  %43 = load i32, ptr %17, align 4
  %44 = load i32, ptr %12, align 4
  %45 = icmp eq i32 %43, %44
  br i1 %45, label %46, label %51

46:                                               ; preds = %35
  %47 = load ptr, ptr %11, align 8
  %48 = load ptr, ptr %9, align 8
  %49 = call ptr @proto_tree_get_parent(ptr noundef %48)
  %50 = call ptr @expert_add_info(ptr noundef %47, ptr noundef %49, ptr noundef @ei_kafka_zero_field_length)
  br label %56

51:                                               ; preds = %35
  %52 = load i32, ptr %17, align 4
  store i32 %52, ptr %12, align 4
  br label %53

53:                                               ; preds = %51
  %54 = load i32, ptr %16, align 4
  %55 = add i32 %54, 1
  store i32 %55, ptr %16, align 4
  br label %31, !llvm.loop !11

56:                                               ; preds = %46, %31
  %57 = load i32, ptr %12, align 4
  store i32 %57, ptr %8, align 4
  store i32 1, ptr %18, align 4
  br label %58

58:                                               ; preds = %56, %24
  call void @llvm.lifetime.end.p0(i64 4, ptr %17) #12
  call void @llvm.lifetime.end.p0(i64 4, ptr %16) #12
  %59 = load i32, ptr %8, align 4
  ret i32 %59
}

; Function Attrs: null_pointer_is_valid sspstrong uwtable
define internal i32 @dissect_kafka_regular_array(ptr noundef %0, ptr noundef %1, ptr noundef %2, i32 noundef %3, i16 noundef signext %4, ptr noundef %5, ptr noundef %6) #0 {
  %8 = alloca i32, align 4
  %9 = alloca ptr, align 8
  %10 = alloca ptr, align 8
  %11 = alloca ptr, align 8
  %12 = alloca i32, align 4
  %13 = alloca i16, align 2
  %14 = alloca ptr, align 8
  %15 = alloca ptr, align 8
  %16 = alloca i32, align 4
  %17 = alloca i32, align 4
  store ptr %0, ptr %9, align 8
  store ptr %1, ptr %10, align 8
  store ptr %2, ptr %11, align 8
  store i32 %3, ptr %12, align 4
  store i16 %4, ptr %13, align 2
  store ptr %5, ptr %14, align 8
  store ptr %6, ptr %15, align 8
  call void @llvm.lifetime.start.p0(i64 4, ptr %16) #12
  %18 = load ptr, ptr %10, align 8
  %19 = load i32, ptr %12, align 4
  %20 = call i32 @tvb_get_ntohl(ptr noundef %18, i32 noundef %19)
  store i32 %20, ptr %16, align 4
  %21 = load i32, ptr %12, align 4
  %22 = add i32 %21, 4
  store i32 %22, ptr %12, align 4
  %23 = load i32, ptr %16, align 4
  %24 = icmp slt i32 %23, -1
  br i1 %24, label %25, label %31

25:                                               ; preds = %7
  %26 = load ptr, ptr %11, align 8
  %27 = load ptr, ptr %9, align 8
  %28 = call ptr @proto_tree_get_parent(ptr noundef %27)
  %29 = call ptr @expert_add_info(ptr noundef %26, ptr noundef %28, ptr noundef @ei_kafka_bad_array_length)
  %30 = load i32, ptr %12, align 4
  store i32 %30, ptr %8, align 4
  store i32 1, ptr %17, align 4
  br label %47

31:                                               ; preds = %7
  %32 = load ptr, ptr %9, align 8
  %33 = load ptr, ptr %10, align 8
  %34 = load ptr, ptr %11, align 8
  %35 = load i32, ptr %12, align 4
  %36 = load i16, ptr %13, align 2
  %37 = load ptr, ptr %14, align 8
  %38 = load i32, ptr %16, align 4
  %39 = call i32 @dissect_kafka_array_elements(ptr noundef %32, ptr noundef %33, ptr noundef %34, i32 noundef %35, i16 noundef signext %36, ptr noundef %37, i32 noundef %38)
  store i32 %39, ptr %12, align 4
  %40 = load ptr, ptr %15, align 8
  %41 = icmp ne ptr %40, null
  br i1 %41, label %42, label %45

42:                                               ; preds = %31
  %43 = load i32, ptr %16, align 4
  %44 = load ptr, ptr %15, align 8
  store i32 %43, ptr %44, align 4
  br label %45

45:                                               ; preds = %42, %31
  %46 = load i32, ptr %12, align 4
  store i32 %46, ptr %8, align 4
  store i32 1, ptr %17, align 4
  br label %47

47:                                               ; preds = %45, %25
  call void @llvm.lifetime.end.p0(i64 4, ptr %16) #12
  %48 = load i32, ptr %8, align 4
  ret i32 %48
}

; Function Attrs: null_pointer_is_valid sspstrong uwtable
define internal i32 @dissect_kafka_compact_array(ptr noundef %0, ptr noundef %1, ptr noundef %2, i32 noundef %3, i16 noundef signext %4, ptr noundef %5, ptr noundef %6) #0 {
  %8 = alloca i32, align 4
  %9 = alloca ptr, align 8
  %10 = alloca ptr, align 8
  %11 = alloca ptr, align 8
  %12 = alloca i32, align 4
  %13 = alloca i16, align 2
  %14 = alloca ptr, align 8
  %15 = alloca ptr, align 8
  %16 = alloca i64, align 8
  %17 = alloca i32, align 4
  %18 = alloca i32, align 4
  store ptr %0, ptr %9, align 8
  store ptr %1, ptr %10, align 8
  store ptr %2, ptr %11, align 8
  store i32 %3, ptr %12, align 4
  store i16 %4, ptr %13, align 2
  store ptr %5, ptr %14, align 8
  store ptr %6, ptr %15, align 8
  call void @llvm.lifetime.start.p0(i64 8, ptr %16) #12
  call void @llvm.lifetime.start.p0(i64 4, ptr %17) #12
  %19 = load ptr, ptr %10, align 8
  %20 = load i32, ptr %12, align 4
  %21 = call i32 @tvb_get_varint(ptr noundef %19, i32 noundef %20, i32 noundef 10, ptr noundef %16, i32 noundef 2)
  store i32 %21, ptr %17, align 4
  %22 = load i32, ptr %17, align 4
  %23 = icmp eq i32 %22, 0
  br i1 %23, label %24, label %31

24:                                               ; preds = %7
  %25 = load ptr, ptr %11, align 8
  %26 = load ptr, ptr %9, align 8
  %27 = call ptr @proto_tree_get_parent(ptr noundef %26)
  %28 = call ptr @expert_add_info(ptr noundef %25, ptr noundef %27, ptr noundef @ei_kafka_bad_varint)
  %29 = load ptr, ptr %10, align 8
  %30 = call i32 @tvb_captured_length(ptr noundef %29)
  store i32 %30, ptr %8, align 4
  store i32 1, ptr %18, align 4
  br label %65

31:                                               ; preds = %7
  %32 = load i64, ptr %16, align 8
  %33 = icmp sgt i64 %32, 134217727
  br i1 %33, label %34, label %42

34:                                               ; preds = %31
  %35 = load ptr, ptr %11, align 8
  %36 = load ptr, ptr %9, align 8
  %37 = call ptr @proto_tree_get_parent(ptr noundef %36)
  %38 = call ptr @expert_add_info(ptr noundef %35, ptr noundef %37, ptr noundef @ei_kafka_bad_array_length)
  %39 = load i32, ptr %12, align 4
  %40 = load i32, ptr %17, align 4
  %41 = add i32 %39, %40
  store i32 %41, ptr %8, align 4
  store i32 1, ptr %18, align 4
  br label %65

42:                                               ; preds = %31
  %43 = load i32, ptr %17, align 4
  %44 = load i32, ptr %12, align 4
  %45 = add i32 %44, %43
  store i32 %45, ptr %12, align 4
  %46 = load ptr, ptr %9, align 8
  %47 = load ptr, ptr %10, align 8
  %48 = load ptr, ptr %11, align 8
  %49 = load i32, ptr %12, align 4
  %50 = load i16, ptr %13, align 2
  %51 = load ptr, ptr %14, align 8
  %52 = load i64, ptr %16, align 8
  %53 = trunc i64 %52 to i32
  %54 = sub i32 %53, 1
  %55 = call i32 @dissect_kafka_array_elements(ptr noundef %46, ptr noundef %47, ptr noundef %48, i32 noundef %49, i16 noundef signext %50, ptr noundef %51, i32 noundef %54)
  store i32 %55, ptr %12, align 4
  %56 = load ptr, ptr %15, align 8
  %57 = icmp ne ptr %56, null
  br i1 %57, label %58, label %63

58:                                               ; preds = %42
  %59 = load i64, ptr %16, align 8
  %60 = trunc i64 %59 to i32
  %61 = sub i32 %60, 1
  %62 = load ptr, ptr %15, align 8
  store i32 %61, ptr %62, align 4
  br label %63

63:                                               ; preds = %58, %42
  %64 = load i32, ptr %12, align 4
  store i32 %64, ptr %8, align 4
  store i32 1, ptr %18, align 4
  br label %65

65:                                               ; preds = %63, %34, %24
  call void @llvm.lifetime.end.p0(i64 4, ptr %17) #12
  call void @llvm.lifetime.end.p0(i64 8, ptr %16) #12
  %66 = load i32, ptr %8, align 4
  ret i32 %66
}

; Function Attrs: null_pointer_is_valid sspstrong uwtable
define internal i32 @dissect_kafka_array(ptr noundef %0, ptr noundef %1, ptr noundef %2, i32 noundef %3, i32 noundef %4, i16 noundef signext %5, ptr noundef %6, ptr noundef %7) #0 {
  %9 = alloca i32, align 4
  %10 = alloca ptr, align 8
  %11 = alloca ptr, align 8
  %12 = alloca ptr, align 8
  %13 = alloca i32, align 4
  %14 = alloca i32, align 4
  %15 = alloca i16, align 2
  %16 = alloca ptr, align 8
  %17 = alloca ptr, align 8
  store ptr %0, ptr %10, align 8
  store ptr %1, ptr %11, align 8
  store ptr %2, ptr %12, align 8
  store i32 %3, ptr %13, align 4
  store i32 %4, ptr %14, align 4
  store i16 %5, ptr %15, align 2
  store ptr %6, ptr %16, align 8
  store ptr %7, ptr %17, align 8
  %18 = load i32, ptr %14, align 4
  %19 = icmp ne i32 %18, 0
  br i1 %19, label %20, label %29

20:                                               ; preds = %8
  %21 = load ptr, ptr %10, align 8
  %22 = load ptr, ptr %11, align 8
  %23 = load ptr, ptr %12, align 8
  %24 = load i32, ptr %13, align 4
  %25 = load i16, ptr %15, align 2
  %26 = load ptr, ptr %16, align 8
  %27 = load ptr, ptr %17, align 8
  %28 = call i32 @dissect_kafka_compact_array(ptr noundef %21, ptr noundef %22, ptr noundef %23, i32 noundef %24, i16 noundef signext %25, ptr noundef %26, ptr noundef %27)
  store i32 %28, ptr %9, align 4
  br label %38

29:                                               ; preds = %8
  %30 = load ptr, ptr %10, align 8
  %31 = load ptr, ptr %11, align 8
  %32 = load ptr, ptr %12, align 8
  %33 = load i32, ptr %13, align 4
  %34 = load i16, ptr %15, align 2
  %35 = load ptr, ptr %16, align 8
  %36 = load ptr, ptr %17, align 8
  %37 = call i32 @dissect_kafka_regular_array(ptr noundef %30, ptr noundef %31, ptr noundef %32, i32 noundef %33, i16 noundef signext %34, ptr noundef %35, ptr noundef %36)
  store i32 %37, ptr %9, align 4
  br label %38

38:                                               ; preds = %29, %20
  %39 = load i32, ptr %9, align 4
  ret i32 %39
}

; Function Attrs: null_pointer_is_valid sspstrong uwtable
define internal i32 @dissect_kafka_describe_log_dirs_request_topic(ptr noundef %0, ptr noundef %1, ptr noundef %2, i32 noundef %3, i16 noundef signext %4) #0 {
  %6 = alloca ptr, align 8
  %7 = alloca ptr, align 8
  %8 = alloca ptr, align 8
  %9 = alloca i32, align 4
  %10 = alloca i16, align 2
  %11 = alloca ptr, align 8
  %12 = alloca ptr, align 8
  %13 = alloca ptr, align 8
  %14 = alloca ptr, align 8
  %15 = alloca i32, align 4
  %16 = alloca i32, align 4
  store ptr %0, ptr %6, align 8
  store ptr %1, ptr %7, align 8
  store ptr %2, ptr %8, align 8
  store i32 %3, ptr %9, align 4
  store i16 %4, ptr %10, align 2
  call void @llvm.lifetime.start.p0(i64 8, ptr %11) #12
  call void @llvm.lifetime.start.p0(i64 8, ptr %12) #12
  call void @llvm.lifetime.start.p0(i64 8, ptr %13) #12
  call void @llvm.lifetime.start.p0(i64 8, ptr %14) #12
  call void @llvm.lifetime.start.p0(i64 4, ptr %15) #12
  call void @llvm.lifetime.start.p0(i64 4, ptr %16) #12
  %17 = load ptr, ptr %8, align 8
  %18 = load ptr, ptr %6, align 8
  %19 = load i32, ptr %9, align 4
  %20 = load i32, ptr @ett_kafka_resource, align 4
  %21 = call ptr @proto_tree_add_subtree(ptr noundef %17, ptr noundef %18, i32 noundef %19, i32 noundef -1, i32 noundef %20, ptr noundef %11, ptr noundef @.str.558)
  store ptr %21, ptr %13, align 8
  %22 = load ptr, ptr %13, align 8
  %23 = load i32, ptr @hf_kafka_topic_name, align 4
  %24 = load ptr, ptr %6, align 8
  %25 = load ptr, ptr %7, align 8
  %26 = load i32, ptr %9, align 4
  %27 = call i32 @dissect_kafka_string(ptr noundef %22, i32 noundef %23, ptr noundef %24, ptr noundef %25, i32 noundef %26, i32 noundef 0, ptr noundef %15, ptr noundef %16)
  store i32 %27, ptr %9, align 4
  %28 = load ptr, ptr %8, align 8
  %29 = load ptr, ptr %6, align 8
  %30 = load i32, ptr %9, align 4
  %31 = load i32, ptr @ett_kafka_partitions, align 4
  %32 = call ptr @proto_tree_add_subtree(ptr noundef %28, ptr noundef %29, i32 noundef %30, i32 noundef -1, i32 noundef %31, ptr noundef %12, ptr noundef @.str.671)
  store ptr %32, ptr %14, align 8
  %33 = load ptr, ptr %14, align 8
  %34 = load ptr, ptr %6, align 8
  %35 = load ptr, ptr %7, align 8
  %36 = load i32, ptr %9, align 4
  %37 = load i16, ptr %10, align 2
  %38 = call i32 @dissect_kafka_array(ptr noundef %33, ptr noundef %34, ptr noundef %35, i32 noundef %36, i32 noundef 0, i16 noundef signext %37, ptr noundef @dissect_kafka_describe_log_dirs_request_partition, ptr noundef null)
  store i32 %38, ptr %9, align 4
  %39 = load ptr, ptr %11, align 8
  %40 = load ptr, ptr %6, align 8
  %41 = load i32, ptr %9, align 4
  call void @proto_item_set_end(ptr noundef %39, ptr noundef %40, i32 noundef %41)
  %42 = load ptr, ptr %11, align 8
  %43 = load ptr, ptr %7, align 8
  %44 = getelementptr inbounds nuw %struct._packet_info, ptr %43, i32 0, i32 51
  %45 = load ptr, ptr %44, align 8
  %46 = load ptr, ptr %6, align 8
  %47 = load i32, ptr %15, align 4
  %48 = load i32, ptr %16, align 4
  %49 = call ptr @tvb_get_string_enc(ptr noundef %45, ptr noundef %46, i32 noundef %47, i32 noundef %48, i32 noundef 2)
  call void (ptr, ptr, ...) @proto_item_append_text(ptr noundef %42, ptr noundef @.str.642, ptr noundef %49)
  %50 = load i32, ptr %9, align 4
  call void @llvm.lifetime.end.p0(i64 4, ptr %16) #12
  call void @llvm.lifetime.end.p0(i64 4, ptr %15) #12
  call void @llvm.lifetime.end.p0(i64 8, ptr %14) #12
  call void @llvm.lifetime.end.p0(i64 8, ptr %13) #12
  call void @llvm.lifetime.end.p0(i64 8, ptr %12) #12
  call void @llvm.lifetime.end.p0(i64 8, ptr %11) #12
  ret i32 %50
}