; Function Attrs: null_pointer_is_valid sspstrong uwtable
define internal noundef i32 @dissect_kafka_describe_log_dirs_request_topic(ptr noundef %0, ptr noundef %1, ptr noundef %2, i32 noundef %3, i16 signext %4) #0 {
  %6 = alloca ptr, align 8
  %7 = alloca ptr, align 8
  %8 = alloca i32, align 4
  %9 = alloca i32, align 4
  call void @llvm.lifetime.start.p0(i64 8, ptr nonnull %6) #9
  call void @llvm.lifetime.start.p0(i64 8, ptr nonnull %7) #9
  call void @llvm.lifetime.start.p0(i64 4, ptr nonnull %8) #9
  call void @llvm.lifetime.start.p0(i64 4, ptr nonnull %9) #9
  %10 = load i32, ptr @ett_kafka_resource, align 4
  %11 = call ptr @proto_tree_add_subtree(ptr noundef %2, ptr noundef %0, i32 noundef %3, i32 noundef -1, i32 noundef %10, ptr noundef nonnull %6, ptr noundef nonnull @.str.558)
  %12 = load i32, ptr @hf_kafka_topic_name, align 4
  %13 = call fastcc i32 @dissect_kafka_string(ptr noundef %11, i32 noundef %12, ptr noundef %0, ptr noundef %1, i32 noundef %3, i32 noundef 0, ptr noundef nonnull %8, ptr noundef nonnull %9)
  %14 = load i32, ptr @ett_kafka_partitions, align 4
  %15 = call ptr @proto_tree_add_subtree(ptr noundef %2, ptr noundef %0, i32 noundef %13, i32 noundef -1, i32 noundef %14, ptr noundef nonnull %7, ptr noundef nonnull @.str.671)
  %16 = call i32 @tvb_get_ntohl(ptr noundef %0, i32 noundef %13)
  %17 = add i32 %13, 4
  %18 = icmp slt i32 %16, -1
  br i1 %18, label %dissect_kafka_array.exit.sink.split, label %19

19:                                               ; preds = %5
  %20 = call i32 @tvb_reported_length_remaining(ptr noundef %0, i32 noundef %17)
  %21 = icmp slt i32 %20, %16
  br i1 %21, label %dissect_kafka_array.exit.sink.split, label %.preheader.i.i15.i

.preheader.i.i15.i:                               ; preds = %19
  %22 = icmp sgt i32 %16, 0
  br i1 %22, label %.preheader, label %dissect_kafka_array.exit

.preheader:                                       ; preds = %.preheader.i.i15.i, %.preheader
  %.02127.i.i21.i = phi i32 [ %26, %.preheader ], [ 0, %.preheader.i.i15.i ]
  %.02226.i.i22.i = phi i32 [ %25, %.preheader ], [ %17, %.preheader.i.i15.i ]
  %23 = load i32, ptr @hf_kafka_partition_id, align 4
  %24 = call ptr @proto_tree_add_item(ptr noundef %15, i32 noundef %23, ptr noundef %0, i32 noundef %.02226.i.i22.i, i32 noundef 4, i32 noundef 0)
  %25 = add i32 %.02226.i.i22.i, 4
  %26 = add nuw nsw i32 %.02127.i.i21.i, 1
  %exitcond.not.i.i23.i = icmp eq i32 %26, %16
  br i1 %exitcond.not.i.i23.i, label %dissect_kafka_array.exit, label %.preheader, !llvm.loop !11

dissect_kafka_array.exit.sink.split:              ; preds = %19, %5
  %27 = call ptr @proto_tree_get_parent(ptr noundef %15)
  %28 = call ptr @expert_add_info(ptr noundef %1, ptr noundef %27, ptr noundef nonnull @ei_kafka_bad_array_length)
  br label %dissect_kafka_array.exit

dissect_kafka_array.exit:                         ; preds = %.preheader, %dissect_kafka_array.exit.sink.split, %.preheader.i.i15.i
  %.0.i = phi i32 [ %17, %.preheader.i.i15.i ], [ %17, %dissect_kafka_array.exit.sink.split ], [ %25, %.preheader ]
  %29 = load ptr, ptr %6, align 8
  call void @proto_item_set_end(ptr noundef %29, ptr noundef %0, i32 noundef %.0.i)
  %30 = load ptr, ptr %6, align 8
  %31 = getelementptr inbounds nuw i8, ptr %1, i64 408
  %32 = load ptr, ptr %31, align 8
  %33 = load i32, ptr %8, align 4
  %34 = load i32, ptr %9, align 4
  %35 = call ptr @tvb_get_string_enc(ptr noundef %32, ptr noundef %0, i32 noundef %33, i32 noundef %34, i32 noundef 2)
  call void (ptr, ptr, ...) @proto_item_append_text(ptr noundef %30, ptr noundef nonnull @.str.642, ptr noundef %35)
  call void @llvm.lifetime.end.p0(i64 4, ptr nonnull %9) #9
  call void @llvm.lifetime.end.p0(i64 4, ptr nonnull %8) #9
  call void @llvm.lifetime.end.p0(i64 8, ptr nonnull %7) #9
  call void @llvm.lifetime.end.p0(i64 8, ptr nonnull %6) #9
  ret i32 %.0.i
}